; Function Attrs: mustprogress nofree nounwind uwtable
define noundef i64 @_ZN10open_spiel4file4File6LengthEv(ptr nocapture noundef nonnull readonly align 8 dereferenceable(8) %0) local_unnamed_addr #7 align 2 {
  %2 = load ptr, ptr %0, align 8
  %3 = tail call i64 @ftell(ptr noundef %2)
  %4 = load ptr, ptr %0, align 8
  %5 = tail call i32 @fseek(ptr noundef %4, i64 noundef 0, i32 noundef 2)
  %6 = load ptr, ptr %0, align 8
  %7 = tail call i64 @ftell(ptr noundef %6)
  %8 = load ptr, ptr %0, align 8
  %9 = tail call i32 @fseek(ptr noundef %8, i64 noundef %3, i32 noundef 0)
  ret i64 %7
}